target datalayout = "e-m:e-p270:32:32-p271:32:32-p272:64:64-i64:64-i128:128-f80:128-n8:16:32:64-S128"
target triple = "x86_64-pc-linux-gnu"

%struct.Jf_Par_t_ = type { i32, i32, i32, i32, i32, i32, i32, i32, i32, i32, i32, i32, i32, i32, i32, i32, i32, i32, i32, i32, i32, i32, i32, i32, i32, i32, i32, i32, i32, i32, i32, i32, i32, i32, i32, i32, i32, i32, i32, i32, i64, i64, i64, i64, i64, i64, i64, i64, i32, float, float, float, float, ptr, ptr }

; Function Attrs: nounwind uwtable
define void @Lf_ManSetDefaultPars(ptr noundef %0) #0 {
  %2 = alloca ptr, align 8
  store ptr %0, ptr %2, align 8, !tbaa !194
  %3 = load ptr, ptr %2, align 8, !tbaa !194
  call void @llvm.memset.p0.i64(ptr align 8 %3, i8 0, i64 264, i1 false)
  %4 = load ptr, ptr %2, align 8, !tbaa !194
  %5 = getelementptr inbounds nuw %struct.Jf_Par_t_, ptr %4, i32 0, i32 0
  store i32 6, ptr %5, align 8, !tbaa !75
  %6 = load ptr, ptr %2, align 8, !tbaa !194
  %7 = getelementptr inbounds nuw %struct.Jf_Par_t_, ptr %6, i32 0, i32 1
  store i32 8, ptr %7, align 4, !tbaa !80
  %8 = load ptr, ptr %2, align 8, !tbaa !194
  %9 = getelementptr inbounds nuw %struct.Jf_Par_t_, ptr %8, i32 0, i32 2
  store i32 0, ptr %9, align 8, !tbaa !226
  %10 = load ptr, ptr %2, align 8, !tbaa !194
  %11 = getelementptr inbounds nuw %struct.Jf_Par_t_, ptr %10, i32 0, i32 3
  store i32 4, ptr %11, align 4, !tbaa !227
  %12 = load ptr, ptr %2, align 8, !tbaa !194
  %13 = getelementptr inbounds nuw %struct.Jf_Par_t_, ptr %12, i32 0, i32 4
  store i32 1, ptr %13, align 8, !tbaa !228
  %14 = load ptr, ptr %2, align 8, !tbaa !194
  %15 = getelementptr inbounds nuw %struct.Jf_Par_t_, ptr %14, i32 0, i32 5
  store i32 0, ptr %15, align 4, !tbaa !147
  %16 = load ptr, ptr %2, align 8, !tbaa !194
  %17 = getelementptr inbounds nuw %struct.Jf_Par_t_, ptr %16, i32 0, i32 6
  store i32 3, ptr %17, align 8, !tbaa !229
  %18 = load ptr, ptr %2, align 8, !tbaa !194
  %19 = getelementptr inbounds nuw %struct.Jf_Par_t_, ptr %18, i32 0, i32 7
  store i32 1, ptr %19, align 4, !tbaa !73
  %20 = load ptr, ptr %2, align 8, !tbaa !194
  %21 = getelementptr inbounds nuw %struct.Jf_Par_t_, ptr %20, i32 0, i32 9
  store i32 5, ptr %21, align 4, !tbaa !230
  %22 = load ptr, ptr %2, align 8, !tbaa !194
  %23 = getelementptr inbounds nuw %struct.Jf_Par_t_, ptr %22, i32 0, i32 13
  store i32 -1, ptr %23, align 4, !tbaa !146
  %24 = load ptr, ptr %2, align 8, !tbaa !194
  %25 = getelementptr inbounds nuw %struct.Jf_Par_t_, ptr %24, i32 0, i32 14
  store i32 0, ptr %25, align 8, !tbaa !231
  %26 = load ptr, ptr %2, align 8, !tbaa !194
  %27 = getelementptr inbounds nuw %struct.Jf_Par_t_, ptr %26, i32 0, i32 18
  store i32 1, ptr %27, align 8, !tbaa !72
  %28 = load ptr, ptr %2, align 8, !tbaa !194
  %29 = getelementptr inbounds nuw %struct.Jf_Par_t_, ptr %28, i32 0, i32 19
  store i32 0, ptr %29, align 4, !tbaa !100
  %30 = load ptr, ptr %2, align 8, !tbaa !194
  %31 = getelementptr inbounds nuw %struct.Jf_Par_t_, ptr %30, i32 0, i32 20
  store i32 0, ptr %31, align 8, !tbaa !70
  %32 = load ptr, ptr %2, align 8, !tbaa !194
  %33 = getelementptr inbounds nuw %struct.Jf_Par_t_, ptr %32, i32 0, i32 21
  store i32 1, ptr %33, align 4, !tbaa !232
  %34 = load ptr, ptr %2, align 8, !tbaa !194
  %35 = getelementptr inbounds nuw %struct.Jf_Par_t_, ptr %34, i32 0, i32 22
  store i32 0, ptr %35, align 8, !tbaa !84
  %36 = load ptr, ptr %2, align 8, !tbaa !194
  %37 = getelementptr inbounds nuw %struct.Jf_Par_t_, ptr %36, i32 0, i32 23
  store i32 0, ptr %37, align 4, !tbaa !233
  %38 = load ptr, ptr %2, align 8, !tbaa !194
  %39 = getelementptr inbounds nuw %struct.Jf_Par_t_, ptr %38, i32 0, i32 24
  store i32 0, ptr %39, align 8, !tbaa !234
  %40 = load ptr, ptr %2, align 8, !tbaa !194
  %41 = getelementptr inbounds nuw %struct.Jf_Par_t_, ptr %40, i32 0, i32 29
  store i32 0, ptr %41, align 4, !tbaa !235
  %42 = load ptr, ptr %2, align 8, !tbaa !194
  %43 = getelementptr inbounds nuw %struct.Jf_Par_t_, ptr %42, i32 0, i32 31
  store i32 0, ptr %43, align 4, !tbaa !236
  %44 = load ptr, ptr %2, align 8, !tbaa !194
  %45 = getelementptr inbounds nuw %struct.Jf_Par_t_, ptr %44, i32 0, i32 32
  store i32 0, ptr %45, align 8, !tbaa !237
  %46 = load ptr, ptr %2, align 8, !tbaa !194
  %47 = getelementptr inbounds nuw %struct.Jf_Par_t_, ptr %46, i32 0, i32 34
  store i32 0, ptr %47, align 8, !tbaa !238
  %48 = load ptr, ptr %2, align 8, !tbaa !194
  %49 = getelementptr inbounds nuw %struct.Jf_Par_t_, ptr %48, i32 0, i32 35
  store i32 0, ptr %49, align 4, !tbaa !239
  %50 = load ptr, ptr %2, align 8, !tbaa !194
  %51 = getelementptr inbounds nuw %struct.Jf_Par_t_, ptr %50, i32 0, i32 36
  store i32 13, ptr %51, align 8, !tbaa !240
  %52 = load ptr, ptr %2, align 8, !tbaa !194
  %53 = getelementptr inbounds nuw %struct.Jf_Par_t_, ptr %52, i32 0, i32 37
  store i32 32, ptr %53, align 4, !tbaa !241
  ret void
}