; Function Attrs: mustprogress nofree norecurse nosync nounwind willreturn memory(argmem: write) uwtable
define void @Lf_ManSetDefaultPars(ptr noundef writeonly captures(none) initializes((0, 264)) %0) local_unnamed_addr #20 {
  %2 = getelementptr inbounds nuw i8, ptr %0, i64 32
  tail call void @llvm.memset.p0.i64(ptr noundef nonnull align 8 dereferenceable(264) %2, i8 0, i64 232, i1 false)
  store i32 6, ptr %0, align 8, !tbaa !64
  %3 = getelementptr inbounds nuw i8, ptr %0, i64 4
  store i32 8, ptr %3, align 4, !tbaa !81
  %4 = getelementptr inbounds nuw i8, ptr %0, i64 8
  store i32 0, ptr %4, align 8, !tbaa !251
  %5 = getelementptr inbounds nuw i8, ptr %0, i64 12
  store i32 4, ptr %5, align 4, !tbaa !252
  %6 = getelementptr inbounds nuw i8, ptr %0, i64 16
  store i32 1, ptr %6, align 8, !tbaa !253
  %7 = getelementptr inbounds nuw i8, ptr %0, i64 20
  store i32 0, ptr %7, align 4, !tbaa !172
  %8 = getelementptr inbounds nuw i8, ptr %0, i64 24
  store i32 3, ptr %8, align 8, !tbaa !254
  %9 = getelementptr inbounds nuw i8, ptr %0, i64 28
  store i32 1, ptr %9, align 4, !tbaa !62
  %10 = getelementptr inbounds nuw i8, ptr %0, i64 36
  store i32 5, ptr %10, align 4, !tbaa !255
  %11 = getelementptr inbounds nuw i8, ptr %0, i64 52
  store i32 -1, ptr %11, align 4, !tbaa !171
  %12 = getelementptr inbounds nuw i8, ptr %0, i64 72
  store i32 1, ptr %12, align 8, !tbaa !61
  %13 = getelementptr inbounds nuw i8, ptr %0, i64 80
  store i32 0, ptr %13, align 8, !tbaa !56
  %14 = getelementptr inbounds nuw i8, ptr %0, i64 84
  store i32 1, ptr %14, align 4, !tbaa !256
  %15 = getelementptr inbounds nuw i8, ptr %0, i64 92
  store i32 0, ptr %15, align 4, !tbaa !257
  %16 = getelementptr inbounds nuw i8, ptr %0, i64 116
  store i32 0, ptr %16, align 4, !tbaa !258
  %17 = getelementptr inbounds nuw i8, ptr %0, i64 128
  store i32 0, ptr %17, align 8, !tbaa !259
  %18 = getelementptr inbounds nuw i8, ptr %0, i64 140
  store i32 0, ptr %18, align 4, !tbaa !260
  %19 = getelementptr inbounds nuw i8, ptr %0, i64 144
  store i32 13, ptr %19, align 8, !tbaa !261
  %20 = getelementptr inbounds nuw i8, ptr %0, i64 148
  store i32 32, ptr %20, align 4, !tbaa !262
  ret void
}